target datalayout = "e-m:e-p270:32:32-p271:32:32-p272:64:64-i64:64-i128:128-f80:128-n8:16:32:64-S128"
target triple = "x86_64-pc-linux-gnu"

%struct.H5PL_vfd_key_t = type { i32, %union.anon.1 }
%union.anon.1 = type { ptr }
%struct.H5FD_get_driver_ud_t = type { %struct.H5PL_vfd_key_t, i64 }

@H5FD_init_g = external global i8, align 1
@H5_libterm_g = external global i8, align 1
@.str = private unnamed_addr constant [101 x i8] c"generated/home/dtcxzyw/WorkSpace/Projects/compilers/llvm-opt-benchmark/bench/hdf5/hdf5/src/H5FDint.c\00", align 1
@H5E_CANTINIT_g = external global i64, align 8
@H5E_FUNC_g = external global i64, align 8
@.str.6 = private unnamed_addr constant [32 x i8] c"interface initialization failed\00", align 1
@H5E_VFL_g = external global i64, align 8
@H5E_BADITER_g = external global i64, align 8
@H5E_CANTINC_g = external global i64, align 8
@.str.44 = private unnamed_addr constant [31 x i8] c"can't iterate over VFL drivers\00", align 1
@.str.45 = private unnamed_addr constant [44 x i8] c"unable to increment ref count on VFL driver\00", align 1
@__func__.H5FD_get_driver_id_by_value = private unnamed_addr constant [28 x i8] c"H5FD_get_driver_id_by_value\00", align 1

; Function Attrs: nounwind uwtable
define i64 @H5FD_get_driver_id_by_value(i32 noundef %0, i1 noundef zeroext %1) #0 {
  %3 = alloca i32, align 4
  %4 = alloca i8, align 1
  %5 = alloca %struct.H5FD_get_driver_ud_t, align 8
  %6 = alloca i64, align 8
  %7 = alloca i8, align 1
  store i32 %0, ptr %3, align 4, !tbaa !12
  %8 = zext i1 %1 to i8
  store i8 %8, ptr %4, align 1, !tbaa !14
  call void @llvm.lifetime.start.p0(i64 24, ptr %5) #8
  call void @llvm.lifetime.start.p0(i64 8, ptr %6) #8
  store i64 -1, ptr %6, align 8, !tbaa !10
  call void @llvm.lifetime.start.p0(i64 1, ptr %7) #8
  store i8 0, ptr %7, align 1, !tbaa !14
  %9 = load i8, ptr @H5FD_init_g, align 1, !tbaa !14, !range !16, !noundef !17
  %10 = trunc i8 %9 to i1
  br i1 %10, label %15, label %11

11:                                               ; preds = %2
  %12 = load i8, ptr @H5_libterm_g, align 1, !tbaa !14, !range !16, !noundef !17
  %13 = trunc i8 %12 to i1
  %14 = xor i1 %13, true
  br label %15

15:                                               ; preds = %11, %2
  %16 = phi i1 [ false, %2 ], [ %14, %11 ]
  %17 = xor i1 %16, true
  %18 = xor i1 %17, true
  %19 = zext i1 %18 to i32
  %20 = sext i32 %19 to i64
  %21 = call i64 @llvm.expect.i64(i64 %20, i64 0)
  %22 = icmp ne i64 %21, 0
  br i1 %22, label %23, label %46

23:                                               ; preds = %15
  store i8 1, ptr @H5FD_init_g, align 1, !tbaa !14
  %24 = call i32 @H5FD__init_package()
  %25 = icmp slt i32 %24, 0
  br i1 %25, label %26, label %45

26:                                               ; preds = %23
  store i8 0, ptr @H5FD_init_g, align 1, !tbaa !14
  br label %27

27:                                               ; preds = %26
  br label %28

28:                                               ; preds = %27
  br label %29

29:                                               ; preds = %28
  %30 = load i64, ptr @H5E_FUNC_g, align 8, !tbaa !10
  %31 = load i64, ptr @H5E_CANTINIT_g, align 8, !tbaa !10
  %32 = call i32 (ptr, ptr, i32, i64, i64, ptr, ...) @H5E_printf_stack(ptr noundef @.str, ptr noundef @__func__.H5FD_get_driver_id_by_value, i32 noundef 3409, i64 noundef %30, i64 noundef %31, ptr noundef @.str.6)
  br label %33

33:                                               ; preds = %29
  br label %34

34:                                               ; preds = %33
  store i8 1, ptr %7, align 1, !tbaa !14
  %35 = load i8, ptr %7, align 1, !tbaa !14, !range !16, !noundef !17
  %36 = trunc i8 %35 to i1
  %37 = zext i1 %36 to i8
  store i8 %37, ptr %7, align 1, !tbaa !14
  br label %38

38:                                               ; preds = %34
  br label %39

39:                                               ; preds = %38
  br label %40

40:                                               ; preds = %39
  store i64 -1, ptr %6, align 8, !tbaa !10
  br label %122

41:                                               ; No predecessors!
  br label %42

42:                                               ; preds = %41
  br label %43

43:                                               ; preds = %42
  br label %44

44:                                               ; preds = %43
  br label %45

45:                                               ; preds = %44, %23
  br label %46

46:                                               ; preds = %45, %15
  %47 = load i8, ptr @H5FD_init_g, align 1, !tbaa !14, !range !16, !noundef !17
  %48 = trunc i8 %47 to i1
  br i1 %48, label %53, label %49

49:                                               ; preds = %46
  %50 = load i8, ptr @H5_libterm_g, align 1, !tbaa !14, !range !16, !noundef !17
  %51 = trunc i8 %50 to i1
  %52 = xor i1 %51, true
  br label %53

53:                                               ; preds = %49, %46
  %54 = phi i1 [ true, %46 ], [ %52, %49 ]
  %55 = xor i1 %54, true
  %56 = xor i1 %55, true
  %57 = zext i1 %56 to i32
  %58 = sext i32 %57 to i64
  %59 = call i64 @llvm.expect.i64(i64 %58, i64 1)
  %60 = icmp ne i64 %59, 0
  br i1 %60, label %61, label %123

61:                                               ; preds = %53
  %62 = getelementptr inbounds nuw %struct.H5FD_get_driver_ud_t, ptr %5, i32 0, i32 0
  %63 = getelementptr inbounds nuw %struct.H5PL_vfd_key_t, ptr %62, i32 0, i32 0
  store i32 1, ptr %63, align 8, !tbaa !108
  %64 = load i32, ptr %3, align 4, !tbaa !12
  %65 = getelementptr inbounds nuw %struct.H5FD_get_driver_ud_t, ptr %5, i32 0, i32 0
  %66 = getelementptr inbounds nuw %struct.H5PL_vfd_key_t, ptr %65, i32 0, i32 1
  store i32 %64, ptr %66, align 8, !tbaa !88
  %67 = getelementptr inbounds nuw %struct.H5FD_get_driver_ud_t, ptr %5, i32 0, i32 1
  store i64 -1, ptr %67, align 8, !tbaa !111
  %68 = call i32 @H5I_iterate(i32 noundef 8, ptr noundef @H5FD__get_driver_cb, ptr noundef %5, i1 noundef zeroext false)
  %69 = icmp slt i32 %68, 0
  br i1 %69, label %70, label %89

70:                                               ; preds = %61
  br label %71

71:                                               ; preds = %70
  br label %72

72:                                               ; preds = %71
  br label %73

73:                                               ; preds = %72
  %74 = load i64, ptr @H5E_VFL_g, align 8, !tbaa !10
  %75 = load i64, ptr @H5E_BADITER_g, align 8, !tbaa !10
  %76 = call i32 (ptr, ptr, i32, i64, i64, ptr, ...) @H5E_printf_stack(ptr noundef @.str, ptr noundef @__func__.H5FD_get_driver_id_by_value, i32 noundef 3418, i64 noundef %74, i64 noundef %75, ptr noundef @.str.44)
  br label %77

77:                                               ; preds = %73
  br label %78

78:                                               ; preds = %77
  store i8 1, ptr %7, align 1, !tbaa !14
  %79 = load i8, ptr %7, align 1, !tbaa !14, !range !16, !noundef !17
  %80 = trunc i8 %79 to i1
  %81 = zext i1 %80 to i8
  store i8 %81, ptr %7, align 1, !tbaa !14
  br label %82

82:                                               ; preds = %78
  br label %83

83:                                               ; preds = %82
  br label %84

84:                                               ; preds = %83
  store i64 -1, ptr %6, align 8, !tbaa !10
  br label %122

85:                                               ; No predecessors!
  br label %86

86:                                               ; preds = %85
  br label %87

87:                                               ; preds = %86
  br label %88

88:                                               ; preds = %87
  br label %89

89:                                               ; preds = %88, %61
  %90 = getelementptr inbounds nuw %struct.H5FD_get_driver_ud_t, ptr %5, i32 0, i32 1
  %91 = load i64, ptr %90, align 8, !tbaa !111
  %92 = icmp ne i64 %91, -1
  br i1 %92, label %93, label %121

93:                                               ; preds = %89
  %94 = getelementptr inbounds nuw %struct.H5FD_get_driver_ud_t, ptr %5, i32 0, i32 1
  %95 = load i64, ptr %94, align 8, !tbaa !111
  store i64 %95, ptr %6, align 8, !tbaa !10
  %96 = load i64, ptr %6, align 8, !tbaa !10
  %97 = load i8, ptr %4, align 1, !tbaa !14, !range !16, !noundef !17
  %98 = trunc i8 %97 to i1
  %99 = call i32 @H5I_inc_ref(i64 noundef %96, i1 noundef zeroext %98)
  %100 = icmp slt i32 %99, 0
  br i1 %100, label %101, label %120

101:                                              ; preds = %93
  br label %102

102:                                              ; preds = %101
  br label %103

103:                                              ; preds = %102
  br label %104

104:                                              ; preds = %103
  %105 = load i64, ptr @H5E_VFL_g, align 8, !tbaa !10
  %106 = load i64, ptr @H5E_CANTINC_g, align 8, !tbaa !10
  %107 = call i32 (ptr, ptr, i32, i64, i64, ptr, ...) @H5E_printf_stack(ptr noundef @.str, ptr noundef @__func__.H5FD_get_driver_id_by_value, i32 noundef 3424, i64 noundef %105, i64 noundef %106, ptr noundef @.str.45)
  br label %108

108:                                              ; preds = %104
  br label %109

109:                                              ; preds = %108
  store i8 1, ptr %7, align 1, !tbaa !14
  %110 = load i8, ptr %7, align 1, !tbaa !14, !range !16, !noundef !17
  %111 = trunc i8 %110 to i1
  %112 = zext i1 %111 to i8
  store i8 %112, ptr %7, align 1, !tbaa !14
  br label %113

113:                                              ; preds = %109
  br label %114

114:                                              ; preds = %113
  br label %115

115:                                              ; preds = %114
  store i64 -1, ptr %6, align 8, !tbaa !10
  br label %122

116:                                              ; No predecessors!
  br label %117

117:                                              ; preds = %116
  br label %118

118:                                              ; preds = %117
  br label %119

119:                                              ; preds = %118
  br label %120

120:                                              ; preds = %119, %93
  br label %121

121:                                              ; preds = %120, %89
  br label %122

122:                                              ; preds = %121, %115, %84, %40
  br label %123

123:                                              ; preds = %122, %53
  %124 = load i64, ptr %6, align 8, !tbaa !10
  call void @llvm.lifetime.end.p0(i64 1, ptr %7) #8
  call void @llvm.lifetime.end.p0(i64 8, ptr %6) #8
  call void @llvm.lifetime.end.p0(i64 24, ptr %5) #8
  ret i64 %124
}